target datalayout = "e-m:e-p270:32:32-p271:32:32-p272:64:64-i64:64-i128:128-f80:128-n8:16:32:64-S128"
target triple = "x86_64-pc-linux-gnu"

%"struct.std::atomic.12" = type { i32 }
%"struct.absl::container_internal::SamplingState" = type { i64, i64 }

@_ZZN4absl18container_internalL19ShouldForceSamplingEvE12global_state = internal global %"struct.std::atomic.12" { i32 2 }, align 4

; Function Attrs: noinline noreturn nounwind uwtable
define linkonce_odr hidden void @__clang_call_terminate(ptr noundef %0) #10 comdat {
  %2 = call ptr @__cxa_begin_catch(ptr %0) #1
  call void @_ZSt9terminatev() #13
  unreachable
}

; Function Attrs: inlinehint mustprogress nounwind uwtable
define linkonce_odr dso_local noundef i64 @_ZSt10__exchangeIliET_RS0_OT0_(ptr noundef nonnull align 8 dereferenceable(8) %0, ptr noundef nonnull align 4 dereferenceable(4) %1) #3 comdat {
  %3 = alloca ptr, align 8
  %4 = alloca ptr, align 8
  %5 = alloca i64, align 8
  store ptr %0, ptr %3, align 8, !tbaa !56
  store ptr %1, ptr %4, align 8, !tbaa !58
  call void @llvm.lifetime.start.p0(i64 8, ptr %5) #1
  %6 = load ptr, ptr %3, align 8, !tbaa !56
  %7 = load i64, ptr %6, align 8, !tbaa !23
  store i64 %7, ptr %5, align 8, !tbaa !23
  %8 = load ptr, ptr %4, align 8, !tbaa !58
  %9 = load i32, ptr %8, align 4, !tbaa !27
  %10 = sext i32 %9 to i64
  %11 = load ptr, ptr %3, align 8, !tbaa !56
  store i64 %10, ptr %11, align 8, !tbaa !23
  %12 = load i64, ptr %5, align 8, !tbaa !23
  call void @llvm.lifetime.end.p0(i64 8, ptr %5) #1
  ret i64 %12
}

; Function Attrs: mustprogress nounwind uwtable
define internal void @_ZNSt6atomicIZN4absl18container_internalL19ShouldForceSamplingEvE10ForceStateE5storeES2_St12memory_order(ptr noundef nonnull align 4 dereferenceable(4) %0, i32 noundef %1, i32 noundef %2) #4 align 2 {
  %4 = alloca ptr, align 8
  %5 = alloca i32, align 4
  %6 = alloca i32, align 4
  store ptr %0, ptr %4, align 8, !tbaa !112
  store i32 %1, ptr %5, align 4, !tbaa !55
  store i32 %2, ptr %6, align 4, !tbaa !43
  %7 = load ptr, ptr %4, align 8
  %8 = getelementptr inbounds nuw %"struct.std::atomic.12", ptr %7, i32 0, i32 0
  %9 = load i32, ptr %6, align 4, !tbaa !43
  switch i32 %9, label %10 [
    i32 3, label %12
    i32 5, label %14
  ]

10:                                               ; preds = %3
  %11 = load i32, ptr %5, align 4
  store atomic i32 %11, ptr %8 monotonic, align 4
  br label %16

12:                                               ; preds = %3
  %13 = load i32, ptr %5, align 4
  store atomic i32 %13, ptr %8 release, align 4
  br label %16

14:                                               ; preds = %3
  %15 = load i32, ptr %5, align 4
  store atomic i32 %15, ptr %8 seq_cst, align 4
  br label %16

16:                                               ; preds = %14, %12, %10
  ret void
}

; Function Attrs: mustprogress nounwind uwtable
define internal noundef i32 @_ZNKSt6atomicIZN4absl18container_internalL19ShouldForceSamplingEvE10ForceStateE4loadESt12memory_order(ptr noundef nonnull align 4 dereferenceable(4) %0, i32 noundef %1) #4 align 2 {
  %3 = alloca ptr, align 8
  %4 = alloca i32, align 4
  %5 = alloca [4 x i8], align 4
  %6 = alloca ptr, align 8
  store ptr %0, ptr %3, align 8, !tbaa !112
  store i32 %1, ptr %4, align 4, !tbaa !43
  %7 = load ptr, ptr %3, align 8
  call void @llvm.lifetime.start.p0(i64 4, ptr %5) #1
  call void @llvm.lifetime.start.p0(i64 8, ptr %6) #1
  %8 = getelementptr inbounds [4 x i8], ptr %5, i64 0, i64 0
  store ptr %8, ptr %6, align 8, !tbaa !64
  %9 = getelementptr inbounds nuw %"struct.std::atomic.12", ptr %7, i32 0, i32 0
  %10 = load i32, ptr %4, align 4, !tbaa !43
  %11 = load ptr, ptr %6, align 8, !tbaa !64
  switch i32 %10, label %12 [
    i32 1, label %14
    i32 2, label %14
    i32 5, label %16
  ]

12:                                               ; preds = %2
  %13 = load atomic i32, ptr %9 monotonic, align 4
  store i32 %13, ptr %11, align 4
  br label %18

14:                                               ; preds = %2, %2
  %15 = load atomic i32, ptr %9 acquire, align 4
  store i32 %15, ptr %11, align 4
  br label %18

16:                                               ; preds = %2
  %17 = load atomic i32, ptr %9 seq_cst, align 4
  store i32 %17, ptr %11, align 4
  br label %18

18:                                               ; preds = %16, %14, %12
  %19 = load ptr, ptr %6, align 8, !tbaa !64
  %20 = load i32, ptr %19, align 4, !tbaa !55
  call void @llvm.lifetime.end.p0(i64 8, ptr %6) #1
  call void @llvm.lifetime.end.p0(i64 4, ptr %5) #1
  ret i32 %20
}

; Function Attrs: mustprogress nounwind uwtable
define linkonce_odr dso_local noundef i64 @_ZNSt14numeric_limitsIlE3maxEv() #4 comdat align 2 {
  ret i64 9223372036854775807
}

; Function Attrs: inlinehint mustprogress nounwind uwtable
define linkonce_odr dso_local noundef i64 @_ZSt8exchangeIliET_RS0_OT0_(ptr noundef nonnull align 8 dereferenceable(8) %0, ptr noundef nonnull align 4 dereferenceable(4) %1) #3 comdat personality ptr @__gxx_personality_v0 {
  %3 = alloca ptr, align 8
  %4 = alloca ptr, align 8
  store ptr %0, ptr %3, align 8, !tbaa !56
  store ptr %1, ptr %4, align 8, !tbaa !58
  %5 = load ptr, ptr %3, align 8, !tbaa !56
  %6 = load ptr, ptr %4, align 8, !tbaa !58
  %7 = invoke noundef i64 @_ZSt10__exchangeIliET_RS0_OT0_(ptr noundef nonnull align 8 dereferenceable(8) %5, ptr noundef nonnull align 4 dereferenceable(4) %6)
          to label %8 unwind label %9

8:                                                ; preds = %2
  ret i64 %7

9:                                                ; preds = %2
  %10 = landingpad { ptr, i32 }
          catch ptr null
  %11 = extractvalue { ptr, i32 } %10, 0
  call void @__clang_call_terminate(ptr %11) #13
  unreachable
}

; Function Attrs: mustprogress uwtable
define internal noundef zeroext i1 @_ZN4absl18container_internalL19ShouldForceSamplingEv() #0 {
  %1 = alloca i1, align 1
  %2 = alloca i32, align 4
  %3 = alloca i32, align 4
  call void @llvm.lifetime.start.p0(i64 4, ptr %2) #1
  %4 = call noundef i32 @_ZNKSt6atomicIZN4absl18container_internalL19ShouldForceSamplingEvE10ForceStateE4loadESt12memory_order(ptr noundef nonnull align 4 dereferenceable(4) @_ZZN4absl18container_internalL19ShouldForceSamplingEvE12global_state, i32 noundef 0) #1
  store i32 %4, ptr %2, align 4, !tbaa !55
  %5 = load i32, ptr %2, align 4, !tbaa !55
  %6 = icmp eq i32 %5, 0
  %7 = zext i1 %6 to i64
  %8 = call i64 @llvm.expect.i64(i64 %7, i64 1)
  %9 = icmp ne i64 %8, 0
  br i1 %9, label %10, label %11

10:                                               ; preds = %0
  store i1 false, ptr %1, align 1
  store i32 1, ptr %3, align 4
  br label %21

11:                                               ; preds = %0
  %12 = load i32, ptr %2, align 4, !tbaa !55
  %13 = icmp eq i32 %12, 2
  br i1 %13, label %14, label %18

14:                                               ; preds = %11
  %15 = call zeroext i1 @AbslContainerInternalSampleEverything()
  %16 = select i1 %15, i32 1, i32 0
  store i32 %16, ptr %2, align 4, !tbaa !55
  %17 = load i32, ptr %2, align 4, !tbaa !55
  call void @_ZNSt6atomicIZN4absl18container_internalL19ShouldForceSamplingEvE10ForceStateE5storeES2_St12memory_order(ptr noundef nonnull align 4 dereferenceable(4) @_ZZN4absl18container_internalL19ShouldForceSamplingEvE12global_state, i32 noundef %17, i32 noundef 0) #1
  br label %18

18:                                               ; preds = %14, %11
  %19 = load i32, ptr %2, align 4, !tbaa !55
  %20 = icmp eq i32 %19, 1
  store i1 %20, ptr %1, align 1
  store i32 1, ptr %3, align 4
  br label %21

21:                                               ; preds = %18, %10
  call void @llvm.lifetime.end.p0(i64 4, ptr %2) #1
  %22 = load i1, ptr %1, align 1
  ret i1 %22
}

; Function Attrs: mustprogress uwtable
define dso_local noundef ptr @_ZN4absl18container_internal10SampleSlowERNS0_13SamplingStateEmmmt(ptr noundef nonnull align 8 dereferenceable(16) %0, i64 noundef %1, i64 noundef %2, i64 noundef %3, i16 noundef zeroext %4) #0 {
  %6 = alloca ptr, align 8
  %7 = alloca ptr, align 8
  %8 = alloca i64, align 8
  %9 = alloca i64, align 8
  %10 = alloca i64, align 8
  %11 = alloca i16, align 2
  %12 = alloca i64, align 8
  %13 = alloca i32, align 4
  %14 = alloca ptr, align 8
  %15 = alloca %"struct.absl::container_internal::SamplingState", align 8
  store ptr %0, ptr %7, align 8, !tbaa !49
  store i64 %1, ptr %8, align 8, !tbaa !23
  store i64 %2, ptr %9, align 8, !tbaa !23
  store i64 %3, ptr %10, align 8, !tbaa !23
  store i16 %4, ptr %11, align 2, !tbaa !24
  %16 = call noundef zeroext i1 @_ZN4absl18container_internalL19ShouldForceSamplingEv()
  %17 = zext i1 %16 to i64
  %18 = call i64 @llvm.expect.i64(i64 %17, i64 0)
  %19 = icmp ne i64 %18, 0
  br i1 %19, label %20, label %29

20:                                               ; preds = %5
  %21 = load ptr, ptr %7, align 8, !tbaa !49
  %22 = getelementptr inbounds nuw %"struct.absl::container_internal::SamplingState", ptr %21, i32 0, i32 0
  store i64 1, ptr %22, align 8, !tbaa !51
  call void @llvm.lifetime.start.p0(i64 8, ptr %12) #1
  %23 = load ptr, ptr %7, align 8, !tbaa !49
  %24 = getelementptr inbounds nuw %"struct.absl::container_internal::SamplingState", ptr %23, i32 0, i32 1
  call void @llvm.lifetime.start.p0(i64 4, ptr %13) #1
  store i32 1, ptr %13, align 4, !tbaa !27
  %25 = call noundef i64 @_ZSt8exchangeIliET_RS0_OT0_(ptr noundef nonnull align 8 dereferenceable(8) %24, ptr noundef nonnull align 4 dereferenceable(4) %13) #1
  call void @llvm.lifetime.end.p0(i64 4, ptr %13) #1
  store i64 %25, ptr %12, align 8, !tbaa !23
  call void @llvm.lifetime.start.p0(i64 8, ptr %14) #1
  %26 = call noundef nonnull align 8 dereferenceable(712) ptr @_ZN4absl18container_internal23GlobalHashtablezSamplerEv()
  %27 = call noundef ptr @_ZN4absl18profiling_internal14SampleRecorderINS_18container_internal14HashtablezInfoEE8RegisterIJRKlRmS8_S8_RtEEEPS3_DpOT_(ptr noundef nonnull align 8 dereferenceable(712) %26, ptr noundef nonnull align 8 dereferenceable(8) %12, ptr noundef nonnull align 8 dereferenceable(8) %8, ptr noundef nonnull align 8 dereferenceable(8) %9, ptr noundef nonnull align 8 dereferenceable(8) %10, ptr noundef nonnull align 2 dereferenceable(2) %11)
  store ptr %27, ptr %14, align 8, !tbaa !10
  %28 = load ptr, ptr %14, align 8, !tbaa !10
  store ptr %28, ptr %6, align 8
  call void @llvm.lifetime.end.p0(i64 8, ptr %14) #1
  call void @llvm.lifetime.end.p0(i64 8, ptr %12) #1
  br label %35

29:                                               ; preds = %5
  call void @llvm.lifetime.start.p0(i64 16, ptr %15) #1
  %30 = getelementptr inbounds nuw %"struct.absl::container_internal::SamplingState", ptr %15, i32 0, i32 0
  %31 = call noundef i64 @_ZNSt14numeric_limitsIlE3maxEv() #1
  store i64 %31, ptr %30, align 8, !tbaa !51
  %32 = getelementptr inbounds nuw %"struct.absl::container_internal::SamplingState", ptr %15, i32 0, i32 1
  %33 = call noundef i64 @_ZNSt14numeric_limitsIlE3maxEv() #1
  store i64 %33, ptr %32, align 8, !tbaa !53
  %34 = load ptr, ptr %7, align 8, !tbaa !49
  call void @llvm.memcpy.p0.p0.i64(ptr align 8 %34, ptr align 8 %15, i64 16, i1 false), !tbaa.struct !54
  call void @llvm.lifetime.end.p0(i64 16, ptr %15) #1
  store ptr null, ptr %6, align 8
  br label %35

35:                                               ; preds = %29, %20
  %36 = load ptr, ptr %6, align 8
  ret ptr %36
}