; Function Attrs: mustprogress uwtable
define dso_local noundef ptr @_ZN4absl18container_internal10SampleSlowERNS0_13SamplingStateEmmmt(ptr noundef nonnull align 8 captures(none) dereferenceable(16) initializes((0, 8)) %0, i64 noundef %1, i64 noundef %2, i64 noundef %3, i16 noundef zeroext %4) local_unnamed_addr #0 personality ptr @__gxx_personality_v0 {
  %6 = alloca i64, align 8
  %7 = alloca i64, align 8
  %8 = alloca i64, align 8
  %9 = alloca i16, align 2
  %10 = alloca i64, align 8
  store i64 %1, ptr %6, align 8, !tbaa !36
  store i64 %2, ptr %7, align 8, !tbaa !36
  store i64 %3, ptr %8, align 8, !tbaa !36
  store i16 %4, ptr %9, align 2, !tbaa !37
  %11 = load atomic i32, ptr @_ZZN4absl18container_internalL19ShouldForceSamplingEvE12global_state.0 monotonic, align 4
  switch i32 %11, label %_ZN4absl18container_internalL19ShouldForceSamplingEv.exit [
    i32 0, label %_ZN4absl18container_internalL19ShouldForceSamplingEv.exit.thread
    i32 2, label %12
  ], !prof !38

12:                                               ; preds = %5
  %13 = tail call zeroext i1 @AbslContainerInternalSampleEverything()
  %14 = zext i1 %13 to i32
  store atomic i32 %14, ptr @_ZZN4absl18container_internalL19ShouldForceSamplingEvE12global_state.0 monotonic, align 4
  br label %_ZN4absl18container_internalL19ShouldForceSamplingEv.exit

_ZN4absl18container_internalL19ShouldForceSamplingEv.exit: ; preds = %5, %12
  %.0.i = phi i32 [ %14, %12 ], [ %11, %5 ]
  %15 = icmp eq i32 %.0.i, 1
  br i1 %15, label %16, label %_ZN4absl18container_internalL19ShouldForceSamplingEv.exit.thread, !prof !39

16:                                               ; preds = %_ZN4absl18container_internalL19ShouldForceSamplingEv.exit
  store i64 1, ptr %0, align 8, !tbaa !40
  call void @llvm.lifetime.start.p0(i64 8, ptr nonnull %10) #13
  %17 = getelementptr inbounds nuw i8, ptr %0, i64 8
  %18 = load i64, ptr %17, align 8, !tbaa !36
  store i64 1, ptr %17, align 8, !tbaa !36
  store i64 %18, ptr %10, align 8, !tbaa !36
  %19 = tail call noundef nonnull align 8 dereferenceable(712) ptr @_ZN4absl18container_internal23GlobalHashtablezSamplerEv()
  %20 = call noundef ptr @_ZN4absl18profiling_internal14SampleRecorderINS_18container_internal14HashtablezInfoEE8RegisterIJRKlRmS8_S8_RtEEEPS3_DpOT_(ptr noundef nonnull align 8 dereferenceable(712) %19, ptr noundef nonnull align 8 dereferenceable(8) %10, ptr noundef nonnull align 8 dereferenceable(8) %6, ptr noundef nonnull align 8 dereferenceable(8) %7, ptr noundef nonnull align 8 dereferenceable(8) %8, ptr noundef nonnull align 2 dereferenceable(2) %9)
  call void @llvm.lifetime.end.p0(i64 8, ptr nonnull %10) #13
  br label %21

_ZN4absl18container_internalL19ShouldForceSamplingEv.exit.thread: ; preds = %5, %_ZN4absl18container_internalL19ShouldForceSamplingEv.exit
  store i64 9223372036854775807, ptr %0, align 8, !tbaa !36
  %.sroa.4.0..sroa_idx = getelementptr inbounds nuw i8, ptr %0, i64 8
  store i64 9223372036854775807, ptr %.sroa.4.0..sroa_idx, align 8, !tbaa !36
  br label %21

21:                                               ; preds = %_ZN4absl18container_internalL19ShouldForceSamplingEv.exit.thread, %16
  %.0 = phi ptr [ %20, %16 ], [ null, %_ZN4absl18container_internalL19ShouldForceSamplingEv.exit.thread ]
  ret ptr %.0
}